; Function Attrs: mustprogress uwtable
define hidden noundef zeroext i1 @_ZNK10params_ref8containsEPKc(ptr nocapture noundef nonnull readonly align 8 dereferenceable(8) %this, ptr noundef %k) local_unnamed_addr #3 align 2 {
entry:
  %0 = load ptr, ptr %this, align 8
  %tobool.not = icmp eq ptr %0, null
  br i1 %tobool.not, label %return, label %if.end

if.end:                                           ; preds = %entry
  %call = tail call noundef zeroext i1 @_ZNK6params8containsEPKc(ptr noundef nonnull align 8 dereferenceable(12) %0, ptr noundef %k)
  br label %return

return:                                           ; preds = %entry, %if.end
  %retval.0 = phi i1 [ %call, %if.end ], [ false, %entry ]
  ret i1 %retval.0
}